target datalayout = "e-m:e-p270:32:32-p271:32:32-p272:64:64-i64:64-i128:128-f80:128-n8:16:32:64-S128"
target triple = "x86_64-pc-linux-gnu"

%struct.PyWideStringList = type { i64, ptr }
%struct.PyPreConfig = type { i32, i32, i32, i32, i32, i32, i32, i32, i32, i32 }
%struct.PyConfig = type { i32, i32, i32, i32, i32, i32, i64, i32, i32, i32, i32, i32, i32, i32, ptr, i32, ptr, ptr, ptr, i32, %struct.PyWideStringList, %struct.PyWideStringList, %struct.PyWideStringList, %struct.PyWideStringList, i32, i32, i32, i32, i32, i32, i32, i32, i32, i32, i32, i32, i32, ptr, ptr, ptr, i32, i32, i32, i32, i32, ptr, ptr, ptr, ptr, i32, %struct.PyWideStringList, ptr, ptr, ptr, ptr, ptr, ptr, ptr, i32, ptr, ptr, ptr, ptr, i32, i32, i32 }
%struct.PyStatus = type { i32, ptr, ptr, i32 }

@.str.123 = private unnamed_addr constant [83 x i8] c"import _testinternalcapi, json; print(json.dumps(_testinternalcapi.get_configs()))\00", align 1
@.str.202 = private unnamed_addr constant [9 x i8] c"TESTPATH\00", align 1
@.str.203 = private unnamed_addr constant [25 x i8] c"missing TESTPATH env var\00", align 1
@.str.204 = private unnamed_addr constant [26 x i8] c"failed to decode TESTPATH\00", align 1
@.str.205 = private unnamed_addr constant [10 x i8] c"TESTPATH=\00", align 1
@.str.206 = private unnamed_addr constant [18 x i32] [i32 99, i32 111, i32 110, i32 102, i32 95, i32 112, i32 114, i32 111, i32 103, i32 114, i32 97, i32 109, i32 95, i32 110, i32 97, i32 109, i32 101, i32 0], align 4
@.str.207 = private unnamed_addr constant [16 x i32] [i32 99, i32 111, i32 110, i32 102, i32 95, i32 101, i32 120, i32 101, i32 99, i32 117, i32 116, i32 97, i32 98, i32 108, i32 101, i32 0], align 4

; Function Attrs: nounwind uwtable
define internal void @dump_config() #0 {
  %1 = call i32 @PyRun_SimpleStringFlags(ptr noundef @.str.123, ptr noundef null)
  ret void
}

; Function Attrs: nounwind uwtable
define internal void @init_from_config_clear(ptr noundef %0) #0 {
  %2 = alloca ptr, align 8
  %3 = alloca %struct.PyStatus, align 8
  store ptr %0, ptr %2, align 8, !tbaa !85
  call void @llvm.lifetime.start.p0(i64 32, ptr %3) #11
  %4 = load ptr, ptr %2, align 8, !tbaa !85
  call void @Py_InitializeFromConfig(ptr dead_on_unwind writable sret(%struct.PyStatus) align 8 %3, ptr noundef %4)
  %5 = load ptr, ptr %2, align 8, !tbaa !85
  call void @PyConfig_Clear(ptr noundef %5)
  %6 = call i32 @PyStatus_Exception(ptr noundef byval(%struct.PyStatus) align 8 %3)
  %7 = icmp ne i32 %6, 0
  br i1 %7, label %8, label %9

8:                                                ; preds = %1
  call void @Py_ExitStatusException(ptr noundef byval(%struct.PyStatus) align 8 %3) #15
  unreachable

9:                                                ; preds = %1
  call void @llvm.lifetime.end.p0(i64 32, ptr %3) #11
  ret void
}

; Function Attrs: nounwind uwtable
define internal void @config_set_string(ptr noundef %0, ptr noundef %1, ptr noundef %2) #0 {
  %4 = alloca ptr, align 8
  %5 = alloca ptr, align 8
  %6 = alloca ptr, align 8
  %7 = alloca %struct.PyStatus, align 8
  store ptr %0, ptr %4, align 8, !tbaa !85
  store ptr %1, ptr %5, align 8, !tbaa !78
  store ptr %2, ptr %6, align 8, !tbaa !36
  call void @llvm.lifetime.start.p0(i64 32, ptr %7) #11
  %8 = load ptr, ptr %4, align 8, !tbaa !85
  %9 = load ptr, ptr %5, align 8, !tbaa !78
  %10 = load ptr, ptr %6, align 8, !tbaa !36
  call void @PyConfig_SetString(ptr dead_on_unwind writable sret(%struct.PyStatus) align 8 %7, ptr noundef %8, ptr noundef %9, ptr noundef %10)
  %11 = call i32 @PyStatus_Exception(ptr noundef byval(%struct.PyStatus) align 8 %7)
  %12 = icmp ne i32 %11, 0
  br i1 %12, label %13, label %15

13:                                               ; preds = %3
  %14 = load ptr, ptr %4, align 8, !tbaa !85
  call void @PyConfig_Clear(ptr noundef %14)
  call void @Py_ExitStatusException(ptr noundef byval(%struct.PyStatus) align 8 %7) #15
  unreachable

15:                                               ; preds = %3
  call void @llvm.lifetime.end.p0(i64 32, ptr %7) #11
  ret void
}

; Function Attrs: nounwind uwtable
define internal i32 @test_init_setpath_config() #0 {
  %1 = alloca i32, align 4
  %2 = alloca %struct.PyPreConfig, align 4
  %3 = alloca %struct.PyStatus, align 8
  %4 = alloca ptr, align 8
  %5 = alloca i32, align 4
  %6 = alloca ptr, align 8
  %7 = alloca %struct.PyConfig, align 8
  call void @llvm.lifetime.start.p0(i64 40, ptr %2) #11
  call void @PyPreConfig_InitPythonConfig(ptr noundef %2)
  call void @llvm.lifetime.start.p0(i64 32, ptr %3) #11
  call void @Py_PreInitialize(ptr dead_on_unwind writable sret(%struct.PyStatus) align 8 %3, ptr noundef %2)
  %8 = call i32 @PyStatus_Exception(ptr noundef byval(%struct.PyStatus) align 8 %3)
  %9 = icmp ne i32 %8, 0
  br i1 %9, label %10, label %11

10:                                               ; preds = %0
  call void @Py_ExitStatusException(ptr noundef byval(%struct.PyStatus) align 8 %3) #15
  unreachable

11:                                               ; preds = %0
  call void @llvm.lifetime.start.p0(i64 8, ptr %4) #11
  %12 = call ptr @getenv(ptr noundef @.str.202) #11
  store ptr %12, ptr %4, align 8, !tbaa !16
  %13 = load ptr, ptr %4, align 8, !tbaa !16
  %14 = icmp ne ptr %13, null
  br i1 %14, label %16, label %15

15:                                               ; preds = %11
  call void @error(ptr noundef @.str.203)
  store i32 1, ptr %1, align 4
  store i32 1, ptr %5, align 4
  br label %29

16:                                               ; preds = %11
  call void @llvm.lifetime.start.p0(i64 8, ptr %6) #11
  %17 = load ptr, ptr %4, align 8, !tbaa !16
  %18 = call ptr @Py_DecodeLocale(ptr noundef %17, ptr noundef null)
  store ptr %18, ptr %6, align 8, !tbaa !36
  %19 = load ptr, ptr %6, align 8, !tbaa !36
  %20 = icmp eq ptr %19, null
  br i1 %20, label %21, label %22

21:                                               ; preds = %16
  call void @error(ptr noundef @.str.204)
  store i32 1, ptr %1, align 4
  store i32 1, ptr %5, align 4
  br label %28

22:                                               ; preds = %16
  %23 = load ptr, ptr %6, align 8, !tbaa !36
  call void @Py_SetPath(ptr noundef %23)
  %24 = load ptr, ptr %6, align 8, !tbaa !36
  call void @PyMem_RawFree(ptr noundef %24)
  %25 = call i32 @putenv(ptr noundef @.str.205) #11
  call void @llvm.lifetime.start.p0(i64 448, ptr %7) #11
  call void @PyConfig_InitPythonConfig(ptr noundef %7)
  %26 = getelementptr inbounds nuw %struct.PyConfig, ptr %7, i32 0, i32 45
  call void @config_set_string(ptr noundef %7, ptr noundef %26, ptr noundef @.str.206)
  %27 = getelementptr inbounds nuw %struct.PyConfig, ptr %7, i32 0, i32 52
  call void @config_set_string(ptr noundef %7, ptr noundef %27, ptr noundef @.str.207)
  call void @init_from_config_clear(ptr noundef %7)
  call void @dump_config()
  call void @Py_Finalize()
  store i32 0, ptr %1, align 4
  store i32 1, ptr %5, align 4
  call void @llvm.lifetime.end.p0(i64 448, ptr %7) #11
  br label %28

28:                                               ; preds = %22, %21
  call void @llvm.lifetime.end.p0(i64 8, ptr %6) #11
  br label %29

29:                                               ; preds = %28, %15
  call void @llvm.lifetime.end.p0(i64 8, ptr %4) #11
  call void @llvm.lifetime.end.p0(i64 32, ptr %3) #11
  call void @llvm.lifetime.end.p0(i64 40, ptr %2) #11
  %30 = load i32, ptr %1, align 4
  ret i32 %30
}