; Function Attrs: nounwind uwtable
define internal range(i32 0, 2) i32 @test_init_setpath_config() #0 {
  %1 = alloca %struct.PyStatus, align 8
  %2 = alloca %struct.PyStatus, align 8
  %3 = alloca %struct.PyStatus, align 8
  %4 = alloca %struct.PyPreConfig, align 4
  %5 = alloca %struct.PyStatus, align 8
  %6 = alloca %struct.PyConfig, align 8
  call void @llvm.lifetime.start.p0(i64 40, ptr nonnull %4) #20
  call void @PyPreConfig_InitPythonConfig(ptr noundef nonnull %4) #20
  call void @llvm.lifetime.start.p0(i64 32, ptr nonnull %5) #20
  call void @Py_PreInitialize(ptr dead_on_unwind nonnull writable sret(%struct.PyStatus) align 8 %5, ptr noundef nonnull %4) #20
  %7 = call i32 @PyStatus_Exception(ptr noundef nonnull byval(%struct.PyStatus) align 8 %5) #20
  %.not = icmp eq i32 %7, 0
  br i1 %.not, label %9, label %8

8:                                                ; preds = %0
  call void @Py_ExitStatusException(ptr noundef nonnull byval(%struct.PyStatus) align 8 %5) #24
  unreachable

9:                                                ; preds = %0
  %10 = call ptr @getenv(ptr noundef nonnull @.str.202) #20
  %.not7 = icmp eq ptr %10, null
  br i1 %.not7, label %11, label %12

11:                                               ; preds = %9
  call fastcc void @error(ptr noundef nonnull @.str.203)
  br label %27

12:                                               ; preds = %9
  %13 = call ptr @Py_DecodeLocale(ptr noundef nonnull %10, ptr noundef null) #20
  %14 = icmp eq ptr %13, null
  br i1 %14, label %15, label %16

15:                                               ; preds = %12
  call fastcc void @error(ptr noundef nonnull @.str.204)
  br label %27

16:                                               ; preds = %12
  call void @Py_SetPath(ptr noundef nonnull %13) #20
  call void @PyMem_RawFree(ptr noundef nonnull %13) #20
  %17 = call i32 @putenv(ptr noundef nonnull @.str.205) #20
  call void @llvm.lifetime.start.p0(i64 448, ptr nonnull %6) #20
  call void @PyConfig_InitPythonConfig(ptr noundef nonnull %6) #20
  %18 = getelementptr inbounds nuw i8, ptr %6, i64 280
  call void @llvm.lifetime.start.p0(i64 32, ptr nonnull %3) #20
  call void @PyConfig_SetString(ptr dead_on_unwind nonnull writable sret(%struct.PyStatus) align 8 %3, ptr noundef nonnull %6, ptr noundef nonnull %18, ptr noundef nonnull @.str.206) #20
  %19 = call i32 @PyStatus_Exception(ptr noundef nonnull byval(%struct.PyStatus) align 8 %3) #20
  %.not.i = icmp eq i32 %19, 0
  br i1 %.not.i, label %config_set_string.exit, label %20

20:                                               ; preds = %16
  call void @PyConfig_Clear(ptr noundef nonnull %6) #20
  call void @Py_ExitStatusException(ptr noundef nonnull byval(%struct.PyStatus) align 8 %3) #24
  unreachable

config_set_string.exit:                           ; preds = %16
  call void @llvm.lifetime.end.p0(i64 32, ptr nonnull %3) #20
  %21 = getelementptr inbounds nuw i8, ptr %6, i64 344
  call void @llvm.lifetime.start.p0(i64 32, ptr nonnull %2) #20
  call void @PyConfig_SetString(ptr dead_on_unwind nonnull writable sret(%struct.PyStatus) align 8 %2, ptr noundef nonnull %6, ptr noundef nonnull %21, ptr noundef nonnull @.str.207) #20
  %22 = call i32 @PyStatus_Exception(ptr noundef nonnull byval(%struct.PyStatus) align 8 %2) #20
  %.not.i8 = icmp eq i32 %22, 0
  br i1 %.not.i8, label %config_set_string.exit9, label %23

23:                                               ; preds = %config_set_string.exit
  call void @PyConfig_Clear(ptr noundef nonnull %6) #20
  call void @Py_ExitStatusException(ptr noundef nonnull byval(%struct.PyStatus) align 8 %2) #24
  unreachable

config_set_string.exit9:                          ; preds = %config_set_string.exit
  call void @llvm.lifetime.end.p0(i64 32, ptr nonnull %2) #20
  call void @llvm.lifetime.start.p0(i64 32, ptr nonnull %1) #20
  call void @Py_InitializeFromConfig(ptr dead_on_unwind nonnull writable sret(%struct.PyStatus) align 8 %1, ptr noundef nonnull %6) #20
  call void @PyConfig_Clear(ptr noundef nonnull %6) #20
  %24 = call i32 @PyStatus_Exception(ptr noundef nonnull byval(%struct.PyStatus) align 8 %1) #20
  %.not.i10 = icmp eq i32 %24, 0
  br i1 %.not.i10, label %init_from_config_clear.exit, label %25

25:                                               ; preds = %config_set_string.exit9
  call void @Py_ExitStatusException(ptr noundef nonnull byval(%struct.PyStatus) align 8 %1) #24
  unreachable

init_from_config_clear.exit:                      ; preds = %config_set_string.exit9
  call void @llvm.lifetime.end.p0(i64 32, ptr nonnull %1) #20
  %26 = call i32 @PyRun_SimpleStringFlags(ptr noundef nonnull @.str.123, ptr noundef null) #20
  call void @Py_Finalize() #20
  call void @llvm.lifetime.end.p0(i64 448, ptr nonnull %6) #20
  br label %27

27:                                               ; preds = %15, %init_from_config_clear.exit, %11
  %.0 = phi i32 [ 1, %11 ], [ 1, %15 ], [ 0, %init_from_config_clear.exit ]
  call void @llvm.lifetime.end.p0(i64 32, ptr nonnull %5) #20
  call void @llvm.lifetime.end.p0(i64 40, ptr nonnull %4) #20
  ret i32 %.0
}